; Function Attrs: mustprogress uwtable
define dso_local void @_ZN28btHashedOverlappingPairCache19cleanProxyFromPairsEP17btBroadphaseProxyP12btDispatcher(ptr noundef nonnull align 8 dereferenceable(120) %this, ptr noundef %proxy, ptr noundef %dispatcher) unnamed_addr #0 align 2 personality ptr @__gxx_personality_v0 {
entry:
  %cleanPairs = alloca %class.CleanPairCallback, align 8
  store ptr getelementptr inbounds ({ [5 x ptr] }, ptr @_ZTVZN28btHashedOverlappingPairCache19cleanProxyFromPairsEP17btBroadphaseProxyP12btDispatcherE17CleanPairCallback, i64 0, i32 0, i64 2), ptr %cleanPairs, align 8
  %m_cleanProxy.i = getelementptr inbounds i8, ptr %cleanPairs, i64 8
  store ptr %proxy, ptr %m_cleanProxy.i, align 8
  %m_pairCache.i = getelementptr inbounds i8, ptr %cleanPairs, i64 16
  store ptr %this, ptr %m_pairCache.i, align 8
  %m_dispatcher.i = getelementptr inbounds i8, ptr %cleanPairs, i64 24
  store ptr %dispatcher, ptr %m_dispatcher.i, align 8
  %vtable = load ptr, ptr %this, align 8
  %vfn = getelementptr inbounds i8, ptr %vtable, i64 112
  %0 = load ptr, ptr %vfn, align 8
  call void %0(ptr noundef nonnull align 8 dereferenceable(120) %this, ptr noundef nonnull %cleanPairs, ptr noundef %dispatcher)
  ret void
}